target datalayout = "e-m:e-p270:32:32-p271:32:32-p272:64:64-i64:64-i128:128-f80:128-n8:16:32:64-S128"
target triple = "x86_64-pc-linux-gnu"

%"struct.duckdb_hll::sdshdr8" = type { i8, i8, i8, [1 x i8] }
%"struct.duckdb_hll::sdshdr16" = type { i16, i16, i8, [1 x i8] }
%"struct.duckdb_hll::sdshdr32" = type <{ i32, i32, i8, [1 x i8] }>
%"struct.duckdb_hll::sdshdr64" = type <{ i64, i64, i8, [1 x i8] }>

; Function Attrs: inlinehint mustprogress nounwind uwtable
define internal void @_ZN10duckdb_hllL9sdssetlenEPcm(ptr noundef %0, i64 noundef %1) #2 {
  %3 = alloca ptr, align 8
  %4 = alloca i64, align 8
  %5 = alloca i8, align 1
  %6 = alloca ptr, align 8
  store ptr %0, ptr %3, align 8, !tbaa !12
  store i64 %1, ptr %4, align 8, !tbaa !7
  call void @llvm.lifetime.start.p0(i64 1, ptr %5) #11
  %7 = load ptr, ptr %3, align 8, !tbaa !12
  %8 = getelementptr inbounds i8, ptr %7, i64 -1
  %9 = load i8, ptr %8, align 1, !tbaa !9
  store i8 %9, ptr %5, align 1, !tbaa !9
  %10 = load i8, ptr %5, align 1, !tbaa !9
  %11 = zext i8 %10 to i32
  %12 = and i32 %11, 7
  switch i32 %12, label %44 [
    i32 0, label %13
    i32 1, label %21
    i32 2, label %27
    i32 3, label %33
    i32 4, label %39
  ]

13:                                               ; preds = %2
  call void @llvm.lifetime.start.p0(i64 8, ptr %6) #11
  %14 = load ptr, ptr %3, align 8, !tbaa !12
  %15 = getelementptr inbounds i8, ptr %14, i64 -1
  store ptr %15, ptr %6, align 8, !tbaa !12
  %16 = load i64, ptr %4, align 8, !tbaa !7
  %17 = shl i64 %16, 3
  %18 = or i64 0, %17
  %19 = trunc i64 %18 to i8
  %20 = load ptr, ptr %6, align 8, !tbaa !12
  store i8 %19, ptr %20, align 1, !tbaa !9
  call void @llvm.lifetime.end.p0(i64 8, ptr %6) #11
  br label %44

21:                                               ; preds = %2
  %22 = load i64, ptr %4, align 8, !tbaa !7
  %23 = trunc i64 %22 to i8
  %24 = load ptr, ptr %3, align 8, !tbaa !12
  %25 = getelementptr inbounds i8, ptr %24, i64 -4
  %26 = getelementptr inbounds nuw %"struct.duckdb_hll::sdshdr8", ptr %25, i32 0, i32 0
  store i8 %23, ptr %26, align 1, !tbaa !16
  br label %44

27:                                               ; preds = %2
  %28 = load i64, ptr %4, align 8, !tbaa !7
  %29 = trunc i64 %28 to i16
  %30 = load ptr, ptr %3, align 8, !tbaa !12
  %31 = getelementptr inbounds i8, ptr %30, i64 -6
  %32 = getelementptr inbounds nuw %"struct.duckdb_hll::sdshdr16", ptr %31, i32 0, i32 0
  store i16 %29, ptr %32, align 1, !tbaa !21
  br label %44

33:                                               ; preds = %2
  %34 = load i64, ptr %4, align 8, !tbaa !7
  %35 = trunc i64 %34 to i32
  %36 = load ptr, ptr %3, align 8, !tbaa !12
  %37 = getelementptr inbounds i8, ptr %36, i64 -10
  %38 = getelementptr inbounds nuw %"struct.duckdb_hll::sdshdr32", ptr %37, i32 0, i32 0
  store i32 %35, ptr %38, align 1, !tbaa !27
  br label %44

39:                                               ; preds = %2
  %40 = load i64, ptr %4, align 8, !tbaa !7
  %41 = load ptr, ptr %3, align 8, !tbaa !12
  %42 = getelementptr inbounds i8, ptr %41, i64 -18
  %43 = getelementptr inbounds nuw %"struct.duckdb_hll::sdshdr64", ptr %42, i32 0, i32 0
  store i64 %40, ptr %43, align 1, !tbaa !32
  br label %44

44:                                               ; preds = %2, %39, %33, %27, %21, %13
  call void @llvm.lifetime.end.p0(i64 1, ptr %5) #11
  ret void
}

; Function Attrs: mustprogress uwtable
define void @_ZN10duckdb_hll12sdsupdatelenEPc(ptr noundef %0) #0 {
  %2 = alloca ptr, align 8
  %3 = alloca i64, align 8
  store ptr %0, ptr %2, align 8, !tbaa !12
  call void @llvm.lifetime.start.p0(i64 8, ptr %3) #11
  %4 = load ptr, ptr %2, align 8, !tbaa !12
  %5 = call i64 @strlen(ptr noundef %4) #13
  store i64 %5, ptr %3, align 8, !tbaa !7
  %6 = load ptr, ptr %2, align 8, !tbaa !12
  %7 = load i64, ptr %3, align 8, !tbaa !7
  call void @_ZN10duckdb_hllL9sdssetlenEPcm(ptr noundef %6, i64 noundef %7)
  call void @llvm.lifetime.end.p0(i64 8, ptr %3) #11
  ret void
}