; Function Attrs: mustprogress nofree nounwind willreturn memory(argmem: readwrite) uwtable
define void @_ZN10duckdb_hll12sdsupdatelenEPc(ptr noundef captures(none) %0) local_unnamed_addr #9 {
  %2 = tail call i64 @strlen(ptr noundef nonnull dereferenceable(1) %0) #29
  %3 = getelementptr inbounds i8, ptr %0, i64 -1
  %4 = load i8, ptr %3, align 1, !tbaa !20
  %5 = and i8 %4, 7
  switch i8 %5, label %_ZN10duckdb_hllL9sdssetlenEPcm.exit [
    i8 0, label %6
    i8 1, label %8
    i8 2, label %11
    i8 3, label %14
    i8 4, label %17
  ]

6:                                                ; preds = %1
  %.tr.i = trunc i64 %2 to i8
  %7 = shl i8 %.tr.i, 3
  store i8 %7, ptr %3, align 1, !tbaa !20
  br label %_ZN10duckdb_hllL9sdssetlenEPcm.exit

8:                                                ; preds = %1
  %9 = trunc i64 %2 to i8
  %10 = getelementptr inbounds i8, ptr %0, i64 -4
  store i8 %9, ptr %10, align 1, !tbaa !3
  br label %_ZN10duckdb_hllL9sdssetlenEPcm.exit

11:                                               ; preds = %1
  %12 = trunc i64 %2 to i16
  %13 = getelementptr inbounds i8, ptr %0, i64 -6
  store i16 %12, ptr %13, align 1, !tbaa !8
  br label %_ZN10duckdb_hllL9sdssetlenEPcm.exit

14:                                               ; preds = %1
  %15 = trunc i64 %2 to i32
  %16 = getelementptr inbounds i8, ptr %0, i64 -10
  store i32 %15, ptr %16, align 1, !tbaa !12
  br label %_ZN10duckdb_hllL9sdssetlenEPcm.exit

17:                                               ; preds = %1
  %18 = getelementptr inbounds i8, ptr %0, i64 -18
  store i64 %2, ptr %18, align 1, !tbaa !16
  br label %_ZN10duckdb_hllL9sdssetlenEPcm.exit

_ZN10duckdb_hllL9sdssetlenEPcm.exit:              ; preds = %1, %6, %8, %11, %14, %17
  ret void
}